; Function Attrs: mustprogress uwtable
define noundef range(i32 -536870912, 536870912) i32 @_ZN10open_spiel6euchre8CardRankEiNS0_4SuitE(i32 noundef %0, i32 noundef %1) local_unnamed_addr #3 {
  %3 = alloca i32, align 4
  %4 = sdiv i32 %0, 4
  %5 = srem i32 %0, 4
  %6 = icmp eq i32 %5, %1
  %7 = and i32 %0, -4
  %8 = icmp eq i32 %7, 8
  %or.cond = and i1 %6, %8
  br i1 %or.cond, label %16, label %9

9:                                                ; preds = %2
  call void @llvm.lifetime.start.p0(i64 4, ptr nonnull %3)
  store i32 %5, ptr %3, align 4
  br i1 %8, label %10, label %_ZN10open_spiel6euchre8CardSuitEiNS0_4SuitE.exit

10:                                               ; preds = %9
  %11 = call noundef nonnull align 4 dereferenceable(4) ptr @_ZNSt3mapIN10open_spiel6euchre4SuitES2_St4lessIS2_ESaISt4pairIKS2_S2_EEEixERS6_(ptr noundef nonnull align 8 dereferenceable(48) @_ZN10open_spiel6euchre12_GLOBAL__N_115same_color_suitE, ptr noundef nonnull align 4 dereferenceable(4) %3)
  %12 = load i32, ptr %11, align 4
  %13 = icmp eq i32 %12, %1
  %.pre.i = load i32, ptr %3, align 4
  %spec.select.i = select i1 %13, i32 %1, i32 %.pre.i
  br label %_ZN10open_spiel6euchre8CardSuitEiNS0_4SuitE.exit

_ZN10open_spiel6euchre8CardSuitEiNS0_4SuitE.exit: ; preds = %9, %10
  %14 = phi i32 [ %5, %9 ], [ %spec.select.i, %10 ]
  call void @llvm.lifetime.end.p0(i64 4, ptr nonnull %3)
  %15 = icmp eq i32 %14, %1
  %or.cond3 = and i1 %8, %15
  %spec.store.select = select i1 %or.cond3, i32 99, i32 %4
  br label %16

16:                                               ; preds = %2, %_ZN10open_spiel6euchre8CardSuitEiNS0_4SuitE.exit
  %.0 = phi i32 [ %spec.store.select, %_ZN10open_spiel6euchre8CardSuitEiNS0_4SuitE.exit ], [ 100, %2 ]
  ret i32 %.0
}